; Function Attrs: mustprogress nounwind uwtable
define hidden void @_ZN13CollectedHeap25create_heap_space_summaryEv(ptr dead_on_unwind noalias nocapture writable writeonly sret(%class.VirtualSpaceSummary) align 8 %0, ptr noundef nonnull align 8 dereferenceable(104) %1) unnamed_addr #0 align 2 {
  %3 = load ptr, ptr %1, align 8
  %4 = getelementptr inbounds i8, ptr %3, i64 88
  %5 = load ptr, ptr %4, align 8
  %6 = tail call noundef i64 %5(ptr noundef nonnull align 8 dereferenceable(104) %1) #18
  %7 = lshr i64 %6, 3
  %8 = getelementptr inbounds i8, ptr %1, i64 40
  %9 = load ptr, ptr %8, align 8
  %10 = getelementptr inbounds ptr, ptr %9, i64 %7
  %11 = getelementptr inbounds i8, ptr %1, i64 48
  %12 = load i64, ptr %11, align 8
  %13 = getelementptr inbounds ptr, ptr %9, i64 %12
  store ptr %9, ptr %0, align 8
  %14 = getelementptr inbounds i8, ptr %0, i64 8
  store ptr %10, ptr %14, align 8
  %15 = getelementptr inbounds i8, ptr %0, i64 16
  store ptr %13, ptr %15, align 8
  ret void
}